target datalayout = "e-m:e-p270:32:32-p271:32:32-p272:64:64-i64:64-i128:128-f80:128-n8:16:32:64-S128"
target triple = "x86_64-pc-linux-gnu"

%struct.diff_options = type { ptr, ptr, i32, i32, ptr, i32, ptr, i64, i64, ptr, ptr, ptr, ptr, %struct.diff_flags, i32, i32, i32, i32, i32, i32, i32, i32, i32, i32, i32, i32, i32, i32, i32, i32, i32, i32, i32, i32, i32, i32, ptr, i32, ptr, i32, i32, ptr, i64, i64, i32, i32, i32, i32, ptr, i32, i32, ptr, i32, i32, ptr, ptr, i32, [3 x i8], %struct.pathspec, ptr, ptr, ptr, ptr, ptr, ptr, ptr, ptr, i32, ptr, i32, i32, ptr, ptr, i32 }
%struct.diff_flags = type { i32, i32, i32, i32, i32, i32, i32, i32, i32, i32, i32, i32, i32, i32, i32, i32, i32, i32, i32, i32, i32, i32, i32, i32, i32, i32, i32, i32, i32, i32, i32, i32, i32, i32, i32 }
%struct.pathspec = type { i32, i8, i32, i32, ptr }
%struct.option = type { i32, i32, ptr, ptr, ptr, ptr, i32, ptr, i64, ptr, i64, ptr }

@.str.256 = private unnamed_addr constant [7 x i8] c"diff.c\00", align 1
@.str.331 = private unnamed_addr constant [41 x i8] c"option callback does not expect negation\00", align 1
@.str.353 = private unnamed_addr constant [27 x i8] c"size_t overflow: %lu * %lu\00", align 1

; Function Attrs: inlinehint nounwind uwtable
define internal i64 @st_mult(i64 noundef %0, i64 noundef %1) #2 {
  %3 = alloca i64, align 8
  %4 = alloca i64, align 8
  store i64 %0, ptr %3, align 8, !tbaa !11
  store i64 %1, ptr %4, align 8, !tbaa !11
  %5 = load i64, ptr %3, align 8, !tbaa !11
  %6 = icmp ne i64 %5, 0
  br i1 %6, label %7, label %15

7:                                                ; preds = %2
  %8 = load i64, ptr %4, align 8, !tbaa !11
  %9 = load i64, ptr %3, align 8, !tbaa !11
  %10 = udiv i64 -1, %9
  %11 = icmp ugt i64 %8, %10
  br i1 %11, label %12, label %15

12:                                               ; preds = %7
  %13 = load i64, ptr %3, align 8, !tbaa !11
  %14 = load i64, ptr %4, align 8, !tbaa !11
  call void (ptr, ...) @die(ptr noundef @.str.353, i64 noundef %13, i64 noundef %14) #12
  unreachable

15:                                               ; preds = %7, %2
  %16 = load i64, ptr %3, align 8, !tbaa !11
  %17 = load i64, ptr %4, align 8, !tbaa !11
  %18 = mul i64 %16, %17
  ret i64 %18
}

; Function Attrs: nounwind uwtable
define internal i32 @diff_opt_anchored(ptr noundef %0, ptr noundef %1, i32 noundef %2) #0 {
  %4 = alloca ptr, align 8
  %5 = alloca ptr, align 8
  %6 = alloca i32, align 4
  %7 = alloca ptr, align 8
  store ptr %0, ptr %4, align 8, !tbaa !217
  store ptr %1, ptr %5, align 8, !tbaa !9
  store i32 %2, ptr %6, align 4, !tbaa !16
  call void @llvm.lifetime.start.p0(i64 8, ptr %7) #10
  %8 = load ptr, ptr %4, align 8, !tbaa !217
  %9 = getelementptr inbounds nuw %struct.option, ptr %8, i32 0, i32 3
  %10 = load ptr, ptr %9, align 8, !tbaa !224
  store ptr %10, ptr %7, align 8, !tbaa !34
  br label %11

11:                                               ; preds = %3
  %12 = load i32, ptr %6, align 4, !tbaa !16
  %13 = icmp ne i32 %12, 0
  br i1 %13, label %14, label %15

14:                                               ; preds = %11
  call void (ptr, i32, ptr, ...) @BUG_fl(ptr noundef @.str.256, i32 noundef 5158, ptr noundef @.str.331) #12
  unreachable

15:                                               ; preds = %11
  br label %16

16:                                               ; preds = %15
  br label %17

17:                                               ; preds = %16
  %18 = load ptr, ptr %7, align 8, !tbaa !34
  %19 = getelementptr inbounds nuw %struct.diff_options, ptr %18, i32 0, i32 39
  %20 = load i32, ptr %19, align 8, !tbaa !171
  %21 = and i32 %20, -49153
  %22 = or i32 %21, 16384
  %23 = load ptr, ptr %7, align 8, !tbaa !34
  %24 = getelementptr inbounds nuw %struct.diff_options, ptr %23, i32 0, i32 39
  store i32 %22, ptr %24, align 8, !tbaa !171
  br label %25

25:                                               ; preds = %17
  %26 = load ptr, ptr %7, align 8, !tbaa !34
  %27 = getelementptr inbounds nuw %struct.diff_options, ptr %26, i32 0, i32 42
  %28 = load i64, ptr %27, align 8, !tbaa !248
  %29 = add i64 %28, 1
  %30 = load ptr, ptr %7, align 8, !tbaa !34
  %31 = getelementptr inbounds nuw %struct.diff_options, ptr %30, i32 0, i32 43
  %32 = load i64, ptr %31, align 8, !tbaa !251
  %33 = icmp ugt i64 %29, %32
  br i1 %33, label %34, label %73

34:                                               ; preds = %25
  %35 = load ptr, ptr %7, align 8, !tbaa !34
  %36 = getelementptr inbounds nuw %struct.diff_options, ptr %35, i32 0, i32 43
  %37 = load i64, ptr %36, align 8, !tbaa !251
  %38 = add i64 %37, 16
  %39 = mul i64 %38, 3
  %40 = udiv i64 %39, 2
  %41 = load ptr, ptr %7, align 8, !tbaa !34
  %42 = getelementptr inbounds nuw %struct.diff_options, ptr %41, i32 0, i32 42
  %43 = load i64, ptr %42, align 8, !tbaa !248
  %44 = add i64 %43, 1
  %45 = icmp ult i64 %40, %44
  br i1 %45, label %46, label %53

46:                                               ; preds = %34
  %47 = load ptr, ptr %7, align 8, !tbaa !34
  %48 = getelementptr inbounds nuw %struct.diff_options, ptr %47, i32 0, i32 42
  %49 = load i64, ptr %48, align 8, !tbaa !248
  %50 = add i64 %49, 1
  %51 = load ptr, ptr %7, align 8, !tbaa !34
  %52 = getelementptr inbounds nuw %struct.diff_options, ptr %51, i32 0, i32 43
  store i64 %50, ptr %52, align 8, !tbaa !251
  br label %62

53:                                               ; preds = %34
  %54 = load ptr, ptr %7, align 8, !tbaa !34
  %55 = getelementptr inbounds nuw %struct.diff_options, ptr %54, i32 0, i32 43
  %56 = load i64, ptr %55, align 8, !tbaa !251
  %57 = add i64 %56, 16
  %58 = mul i64 %57, 3
  %59 = udiv i64 %58, 2
  %60 = load ptr, ptr %7, align 8, !tbaa !34
  %61 = getelementptr inbounds nuw %struct.diff_options, ptr %60, i32 0, i32 43
  store i64 %59, ptr %61, align 8, !tbaa !251
  br label %62

62:                                               ; preds = %53, %46
  %63 = load ptr, ptr %7, align 8, !tbaa !34
  %64 = getelementptr inbounds nuw %struct.diff_options, ptr %63, i32 0, i32 41
  %65 = load ptr, ptr %64, align 8, !tbaa !249
  %66 = load ptr, ptr %7, align 8, !tbaa !34
  %67 = getelementptr inbounds nuw %struct.diff_options, ptr %66, i32 0, i32 43
  %68 = load i64, ptr %67, align 8, !tbaa !251
  %69 = call i64 @st_mult(i64 noundef 8, i64 noundef %68)
  %70 = call ptr @xrealloc(ptr noundef %65, i64 noundef %69)
  %71 = load ptr, ptr %7, align 8, !tbaa !34
  %72 = getelementptr inbounds nuw %struct.diff_options, ptr %71, i32 0, i32 41
  store ptr %70, ptr %72, align 8, !tbaa !249
  br label %73

73:                                               ; preds = %62, %25
  br label %74

74:                                               ; preds = %73
  br label %75

75:                                               ; preds = %74
  %76 = load ptr, ptr %5, align 8, !tbaa !9
  %77 = call ptr @xstrdup(ptr noundef %76)
  %78 = load ptr, ptr %7, align 8, !tbaa !34
  %79 = getelementptr inbounds nuw %struct.diff_options, ptr %78, i32 0, i32 41
  %80 = load ptr, ptr %79, align 8, !tbaa !249
  %81 = load ptr, ptr %7, align 8, !tbaa !34
  %82 = getelementptr inbounds nuw %struct.diff_options, ptr %81, i32 0, i32 42
  %83 = load i64, ptr %82, align 8, !tbaa !248
  %84 = add i64 %83, 1
  store i64 %84, ptr %82, align 8, !tbaa !248
  %85 = getelementptr inbounds nuw ptr, ptr %80, i64 %83
  store ptr %77, ptr %85, align 8, !tbaa !9
  call void @llvm.lifetime.end.p0(i64 8, ptr %7) #10
  ret i32 0
}