; Function Attrs: nounwind uwtable
define internal noundef i32 @diff_opt_anchored(ptr noundef readonly captures(none) %0, ptr noundef %1, i32 noundef %2) #0 {
  %4 = getelementptr inbounds nuw i8, ptr %0, i64 16
  %5 = load ptr, ptr %4, align 8, !tbaa !215
  %.not = icmp eq i32 %2, 0
  br i1 %.not, label %7, label %6

6:                                                ; preds = %3
  tail call void (ptr, i32, ptr, ...) @BUG_fl(ptr noundef nonnull @.str.256, i32 noundef 5158, ptr noundef nonnull @.str.331) #34
  unreachable

7:                                                ; preds = %3
  %8 = getelementptr inbounds nuw i8, ptr %5, i64 352
  %9 = load i32, ptr %8, align 8, !tbaa !156
  %10 = and i32 %9, -49153
  %11 = or disjoint i32 %10, 16384
  store i32 %11, ptr %8, align 8, !tbaa !156
  %12 = getelementptr inbounds nuw i8, ptr %5, i64 368
  %13 = load i64, ptr %12, align 8, !tbaa !237
  %14 = add i64 %13, 1
  %15 = getelementptr inbounds nuw i8, ptr %5, i64 376
  %16 = load i64, ptr %15, align 8, !tbaa !240
  %17 = icmp ugt i64 %14, %16
  br i1 %17, label %18, label %27

18:                                               ; preds = %7
  %19 = mul i64 %16, 3
  %20 = add i64 %19, 48
  %21 = lshr i64 %20, 1
  %. = tail call i64 @llvm.umax.i64(i64 %21, i64 %14)
  store i64 %., ptr %15, align 8, !tbaa !240
  %mul.ov.i = icmp ugt i64 %., 2305843009213693951
  br i1 %mul.ov.i, label %22, label %st_mult.exit

22:                                               ; preds = %18
  tail call void (ptr, ...) @die(ptr noundef nonnull @.str.353, i64 noundef 8, i64 noundef %.) #34
  unreachable

st_mult.exit:                                     ; preds = %18
  %23 = getelementptr inbounds nuw i8, ptr %5, i64 360
  %24 = load ptr, ptr %23, align 8, !tbaa !238
  %25 = shl nuw i64 %., 3
  %26 = tail call ptr @xrealloc(ptr noundef %24, i64 noundef %25) #32
  store ptr %26, ptr %23, align 8, !tbaa !238
  br label %27

27:                                               ; preds = %st_mult.exit, %7
  %28 = tail call ptr @xstrdup(ptr noundef %1) #32
  %29 = getelementptr inbounds nuw i8, ptr %5, i64 360
  %30 = load ptr, ptr %29, align 8, !tbaa !238
  %31 = load i64, ptr %12, align 8, !tbaa !237
  %32 = add i64 %31, 1
  store i64 %32, ptr %12, align 8, !tbaa !237
  %33 = getelementptr inbounds nuw ptr, ptr %30, i64 %31
  store ptr %28, ptr %33, align 8, !tbaa !4
  ret i32 0
}